(lp0
(dp1
Varrival
p2
V12:47:00
p3
sVindex
p4
I0
sVjourney_details
p5
(lp6
(dp7
Vdept_station
p8
S'London St Pancras Int'
p9
sVdept_time
p10
S'09:22:00'
p11
sVtrain
p12
S'9014'
p13
sVarr_station
p14
S'Paris Nord'
p15
sVarr_time
p16
S'12:47:00'
p17
sasVdeparture
p18
V09:22:00
p19
sVduration
p20
cdatetime
timedelta
p21
(I0
I12300
I0
tp22
Rp23
sVfareRPHS_List
p24
(lp25
V1
p26
aV2
p27
aV3
p28
asVchanges
p29
I0
sa(dp30
g2
V13:47:00
p31
sg4
I1
sg5
(lp32
(dp33
g8
S'London St Pancras Int'
p34
sg10
S'10:24:00'
p35
sg12
S'9018'
p36
sg14
S'Paris Nord'
p37
sg16
S'13:47:00'
p38
sasg18
V10:24:00
p39
sg20
g21
(I0
I12180
I0
tp40
Rp41
sg24
(lp42
V4
p43
aV5
p44
aV6
p45
asg29
I0
sa(dp46
g2
V15:47:00
p47
sg4
I2
sg5
(lp48
(dp49
g8
S'London St Pancras Int'
p50
sg10
S'12:24:00'
p51
sg12
S'9024'
p52
sg14
S'Paris Nord'
p53
sg16
S'15:47:00'
p54
sasg18
V12:24:00
p55
sg20
g21
(I0
I12180
I0
tp56
Rp57
sg24
(lp58
V7
p59
aV8
p60
aV9
p61
asg29
I0
sa(dp62
g2
V16:47:00
p63
sg4
I3
sg5
(lp64
(dp65
g8
S'London St Pancras Int'
p66
sg10
S'13:31:00'
p67
sg12
S'9028'
p68
sg14
S'Paris Nord'
p69
sg16
S'16:47:00'
p70
sasg18
V13:31:00
p71
sg20
g21
(I0
I11760
I0
tp72
Rp73
sg24
(lp74
V10
p75
aV11
p76
aV12
p77
asg29
I0
sa(dp78
g2
V17:47:00
p79
sg4
I4
sg5
(lp80
(dp81
g8
S'London St Pancras Int'
p82
sg10
S'14:22:00'
p83
sg12
S'9032'
p84
sg14
S'Paris Nord'
p85
sg16
S'17:47:00'
p86
sasg18
V14:22:00
p87
sg20
g21
(I0
I12300
I0
tp88
Rp89
sg24
(lp90
V13
p91
aV14
p92
aV15
p93
asg29
I0
sa.